target datalayout = "e-m:e-p270:32:32-p271:32:32-p272:64:64-i64:64-i128:128-f80:128-n8:16:32:64-S128"
target triple = "x86_64-pc-linux-gnu"

%struct.pmix_tma = type { ptr, ptr, ptr, ptr, ptr, ptr, ptr, ptr }
%struct.pmix_value = type { i16, %union.anon }
%union.anon = type { %struct.pmix_envar_t }
%struct.pmix_envar_t = type { ptr, ptr, i8 }

; Function Attrs: inlinehint nounwind uwtable
define internal void @pmix_tma_free(ptr noundef %0, ptr noundef %1) #8 {
  %3 = alloca ptr, align 8
  %4 = alloca ptr, align 8
  store ptr %0, ptr %3, align 8, !tbaa !66
  store ptr %1, ptr %4, align 8, !tbaa !8
  %5 = load ptr, ptr %3, align 8, !tbaa !66
  %6 = icmp ne ptr null, %5
  br i1 %6, label %7, label %13

7:                                                ; preds = %2
  %8 = load ptr, ptr %3, align 8, !tbaa !66
  %9 = getelementptr inbounds nuw %struct.pmix_tma, ptr %8, i32 0, i32 5
  %10 = load ptr, ptr %9, align 8, !tbaa !143
  %11 = load ptr, ptr %3, align 8, !tbaa !66
  %12 = load ptr, ptr %4, align 8, !tbaa !8
  call void %10(ptr noundef %11, ptr noundef %12)
  br label %15

13:                                               ; preds = %2
  %14 = load ptr, ptr %4, align 8, !tbaa !8
  call void @free(ptr noundef %14) #15
  br label %15

15:                                               ; preds = %13, %7
  ret void
}

; Function Attrs: inlinehint nounwind uwtable
define internal void @pmix_bfrops_base_tma_value_free(ptr noundef %0, i64 noundef %1, ptr noundef %2) #8 {
  %4 = alloca ptr, align 8
  %5 = alloca i64, align 8
  %6 = alloca ptr, align 8
  %7 = alloca i64, align 8
  store ptr %0, ptr %4, align 8, !tbaa !3
  store i64 %1, ptr %5, align 8, !tbaa !58
  store ptr %2, ptr %6, align 8, !tbaa !66
  %8 = load ptr, ptr %4, align 8, !tbaa !3
  %9 = icmp ne ptr null, %8
  br i1 %9, label %10, label %27

10:                                               ; preds = %3
  call void @llvm.lifetime.start.p0(i64 8, ptr %7) #15
  store i64 0, ptr %7, align 8, !tbaa !58
  br label %11

11:                                               ; preds = %21, %10
  %12 = load i64, ptr %7, align 8, !tbaa !58
  %13 = load i64, ptr %5, align 8, !tbaa !58
  %14 = icmp ult i64 %12, %13
  br i1 %14, label %16, label %15

15:                                               ; preds = %11
  call void @llvm.lifetime.end.p0(i64 8, ptr %7) #15
  br label %24

16:                                               ; preds = %11
  %17 = load ptr, ptr %4, align 8, !tbaa !3
  %18 = load i64, ptr %7, align 8, !tbaa !58
  %19 = getelementptr inbounds nuw %struct.pmix_value, ptr %17, i64 %18
  %20 = load ptr, ptr %6, align 8, !tbaa !66
  call void @pmix_bfrops_base_tma_value_destruct(ptr noundef %19, ptr noundef %20)
  br label %21

21:                                               ; preds = %16
  %22 = load i64, ptr %7, align 8, !tbaa !58
  %23 = add i64 %22, 1
  store i64 %23, ptr %7, align 8, !tbaa !58
  br label %11, !llvm.loop !212

24:                                               ; preds = %15
  %25 = load ptr, ptr %6, align 8, !tbaa !66
  %26 = load ptr, ptr %4, align 8, !tbaa !3
  call void @pmix_tma_free(ptr noundef %25, ptr noundef %26)
  br label %27

27:                                               ; preds = %24, %3
  ret void
}