; Function Attrs: inlinehint nounwind uwtable
define internal fastcc void @pmix_bfrops_base_tma_value_free(ptr noundef captures(address_is_null) %0, i64 noundef %1) unnamed_addr #8 {
  %.not = icmp eq ptr %0, null
  br i1 %.not, label %5, label %.preheader

.preheader:                                       ; preds = %2
  %.not2 = icmp eq i64 %1, 0
  br i1 %.not2, label %._crit_edge, label %.lr.ph

._crit_edge:                                      ; preds = %.lr.ph, %.preheader
  tail call void @free(ptr noundef nonnull %0) #24
  br label %5

.lr.ph:                                           ; preds = %.preheader, %.lr.ph
  %.01 = phi i64 [ %4, %.lr.ph ], [ 0, %.preheader ]
  %3 = getelementptr inbounds nuw %struct.pmix_value, ptr %0, i64 %.01
  tail call fastcc void @pmix_bfrops_base_tma_value_destruct(ptr noundef nonnull %3)
  %4 = add nuw i64 %.01, 1
  %exitcond.not = icmp eq i64 %4, %1
  br i1 %exitcond.not, label %._crit_edge, label %.lr.ph, !llvm.loop !40

5:                                                ; preds = %._crit_edge, %2
  ret void
}